; Function Attrs: mustprogress uwtable
define noalias noundef nonnull ptr @llama_sampler_init_top_k(i32 noundef %0) local_unnamed_addr #0 {
  %2 = tail call noalias noundef nonnull dereferenceable(4) ptr @_Znwm(i64 noundef 4) #30
  store i32 %0, ptr %2, align 4, !tbaa !59
  %3 = tail call noalias noundef nonnull dereferenceable(16) ptr @_Znwm(i64 noundef 16) #30
  store ptr @_ZL21llama_sampler_top_k_i, ptr %3, align 16, !tbaa !3
  %4 = getelementptr inbounds nuw i8, ptr %3, i64 8
  store ptr %2, ptr %4, align 8, !tbaa !9
  ret ptr %3
}